; Function Attrs: nounwind uwtable
define double @N_VL1Norm_Serial(ptr noundef readonly captures(none) %0) #9 {
  %2 = load ptr, ptr %0, align 8, !tbaa !39
  %3 = load i64, ptr %2, align 8, !tbaa !32
  %4 = getelementptr inbounds nuw i8, ptr %2, i64 16
  %5 = load ptr, ptr %4, align 8, !tbaa !38
  %6 = icmp sgt i64 %3, 0
  br i1 %6, label %.lr.ph, label %._crit_edge

.lr.ph:                                           ; preds = %1, %.lr.ph
  %.010 = phi double [ %10, %.lr.ph ], [ 0.000000e+00, %1 ]
  %.089 = phi i64 [ %11, %.lr.ph ], [ 0, %1 ]
  %7 = getelementptr inbounds nuw double, ptr %5, i64 %.089
  %8 = load double, ptr %7, align 8, !tbaa !44
  %9 = tail call double @SUNRabs(double noundef %8) #18
  %10 = fadd double %.010, %9
  %11 = add nuw nsw i64 %.089, 1
  %exitcond.not = icmp eq i64 %11, %3
  br i1 %exitcond.not, label %._crit_edge, label %.lr.ph, !llvm.loop !73

._crit_edge:                                      ; preds = %.lr.ph, %1
  %.0.lcssa = phi double [ 0.000000e+00, %1 ], [ %10, %.lr.ph ]
  ret double %.0.lcssa
}